target datalayout = "e-m:e-p270:32:32-p271:32:32-p272:64:64-i64:64-i128:128-f80:128-n8:16:32:64-S128"
target triple = "x86_64-pc-linux-gnu"

%struct.HASHCTL = type { i64, i64, i64, i64, i64, i64, ptr, ptr, ptr, ptr, ptr, ptr }
%struct.ReorderBuffer = type { ptr, %struct.dlist_head, %struct.dlist_head, %struct.dclist_head, i32, ptr, ptr, ptr, ptr, ptr, ptr, ptr, ptr, ptr, ptr, ptr, ptr, ptr, ptr, ptr, ptr, ptr, ptr, ptr, ptr, i8, ptr, ptr, ptr, ptr, i64, ptr, i64, i64, ptr, i64, i64, i64, i64, i64, i64, i64, i64 }
%struct.dlist_head = type { %struct.dlist_node }
%struct.dlist_node = type { ptr, ptr }
%struct.dclist_head = type { %struct.dlist_head, i32 }
%struct.ReplicationSlot = type { i8, i8, i32, i8, i8, i32, i32, %struct.ReplicationSlotPersistentData, %struct.LWLock, %struct.ConditionVariable, i32, i64, i64, i64, i64, i64 }
%struct.ReplicationSlotPersistentData = type { %struct.nameData, i32, i32, i32, i32, i64, i32, i64, i64, i8, %struct.nameData, i8, i8 }
%struct.nameData = type { [64 x i8] }
%struct.LWLock = type { i16, %struct.pg_atomic_uint32, %struct.proclist_head }
%struct.pg_atomic_uint32 = type { i32 }
%struct.proclist_head = type { i32, i32 }
%struct.ConditionVariable = type { i8, %struct.proclist_head }

@CurrentMemoryContext = external global ptr, align 8
@.str = private unnamed_addr constant [14 x i8] c"ReorderBuffer\00", align 1
@.str.1 = private unnamed_addr constant [7 x i8] c"Change\00", align 1
@.str.2 = private unnamed_addr constant [4 x i8] c"TXN\00", align 1
@.str.3 = private unnamed_addr constant [7 x i8] c"Tuples\00", align 1
@.str.4 = private unnamed_addr constant [19 x i8] c"ReorderBufferByXid\00", align 1
@MyReplicationSlot = external global ptr, align 8

; Function Attrs: inlinehint nounwind uwtable
define internal void @dclist_init(ptr noundef %0) #4 {
  %2 = alloca ptr, align 8
  store ptr %0, ptr %2, align 8
  %3 = load ptr, ptr %2, align 8
  %4 = getelementptr inbounds nuw %struct.dclist_head, ptr %3, i32 0, i32 0
  call void @dlist_init(ptr noundef %4)
  %5 = load ptr, ptr %2, align 8
  %6 = getelementptr inbounds nuw %struct.dclist_head, ptr %5, i32 0, i32 1
  store i32 0, ptr %6, align 8
  ret void
}

; Function Attrs: inlinehint nounwind uwtable
define internal void @dlist_init(ptr noundef %0) #4 {
  %2 = alloca ptr, align 8
  store ptr %0, ptr %2, align 8
  %3 = load ptr, ptr %2, align 8
  %4 = getelementptr inbounds nuw %struct.dlist_head, ptr %3, i32 0, i32 0
  %5 = load ptr, ptr %2, align 8
  %6 = getelementptr inbounds nuw %struct.dlist_head, ptr %5, i32 0, i32 0
  %7 = getelementptr inbounds nuw %struct.dlist_node, ptr %6, i32 0, i32 0
  store ptr %4, ptr %7, align 8
  %8 = load ptr, ptr %2, align 8
  %9 = getelementptr inbounds nuw %struct.dlist_head, ptr %8, i32 0, i32 0
  %10 = getelementptr inbounds nuw %struct.dlist_node, ptr %9, i32 0, i32 1
  store ptr %4, ptr %10, align 8
  ret void
}

; Function Attrs: nounwind uwtable
define dso_local ptr @ReorderBufferAllocate() #0 {
  %1 = alloca ptr, align 8
  %2 = alloca %struct.HASHCTL, align 8
  %3 = alloca ptr, align 8
  %4 = alloca i32, align 4
  call void @llvm.lifetime.start.p0(i64 8, ptr %1) #13
  call void @llvm.lifetime.start.p0(i64 96, ptr %2) #13
  call void @llvm.lifetime.start.p0(i64 8, ptr %3) #13
  br label %5

5:                                                ; preds = %0
  br label %6

6:                                                ; preds = %5
  br label %7

7:                                                ; preds = %6
  store i32 1, ptr %4, align 4
  %8 = load ptr, ptr @CurrentMemoryContext, align 8
  %9 = call ptr @AllocSetContextCreateInternal(ptr noundef %8, ptr noundef @.str, i64 noundef 0, i64 noundef 8192, i64 noundef 8388608)
  store ptr %9, ptr %3, align 8
  %10 = load ptr, ptr %3, align 8
  %11 = call ptr @MemoryContextAlloc(ptr noundef %10, i64 noundef 376)
  store ptr %11, ptr %1, align 8
  call void @llvm.memset.p0.i64(ptr align 8 %2, i8 0, i64 96, i1 false)
  %12 = load ptr, ptr %3, align 8
  %13 = load ptr, ptr %1, align 8
  %14 = getelementptr inbounds nuw %struct.ReorderBuffer, ptr %13, i32 0, i32 26
  store ptr %12, ptr %14, align 8
  %15 = load ptr, ptr %3, align 8
  %16 = call ptr @SlabContextCreate(ptr noundef %15, ptr noundef @.str.1, i64 noundef 8192, i64 noundef 80)
  %17 = load ptr, ptr %1, align 8
  %18 = getelementptr inbounds nuw %struct.ReorderBuffer, ptr %17, i32 0, i32 27
  store ptr %16, ptr %18, align 8
  %19 = load ptr, ptr %3, align 8
  %20 = call ptr @SlabContextCreate(ptr noundef %19, ptr noundef @.str.2, i64 noundef 8192, i64 noundef 320)
  %21 = load ptr, ptr %1, align 8
  %22 = getelementptr inbounds nuw %struct.ReorderBuffer, ptr %21, i32 0, i32 28
  store ptr %20, ptr %22, align 8
  %23 = load ptr, ptr %3, align 8
  %24 = call ptr @GenerationContextCreate(ptr noundef %23, ptr noundef @.str.3, i64 noundef 8192, i64 noundef 8192, i64 noundef 8192)
  %25 = load ptr, ptr %1, align 8
  %26 = getelementptr inbounds nuw %struct.ReorderBuffer, ptr %25, i32 0, i32 29
  store ptr %24, ptr %26, align 8
  %27 = getelementptr inbounds nuw %struct.HASHCTL, ptr %2, i32 0, i32 4
  store i64 4, ptr %27, align 8
  %28 = getelementptr inbounds nuw %struct.HASHCTL, ptr %2, i32 0, i32 5
  store i64 16, ptr %28, align 8
  %29 = load ptr, ptr %1, align 8
  %30 = getelementptr inbounds nuw %struct.ReorderBuffer, ptr %29, i32 0, i32 26
  %31 = load ptr, ptr %30, align 8
  %32 = getelementptr inbounds nuw %struct.HASHCTL, ptr %2, i32 0, i32 10
  store ptr %31, ptr %32, align 8
  %33 = call ptr @hash_create(ptr noundef @.str.4, i64 noundef 1000, ptr noundef %2, i32 noundef 1064)
  %34 = load ptr, ptr %1, align 8
  %35 = getelementptr inbounds nuw %struct.ReorderBuffer, ptr %34, i32 0, i32 0
  store ptr %33, ptr %35, align 8
  %36 = load ptr, ptr %1, align 8
  %37 = getelementptr inbounds nuw %struct.ReorderBuffer, ptr %36, i32 0, i32 4
  store i32 0, ptr %37, align 8
  %38 = load ptr, ptr %1, align 8
  %39 = getelementptr inbounds nuw %struct.ReorderBuffer, ptr %38, i32 0, i32 5
  store ptr null, ptr %39, align 8
  %40 = load ptr, ptr %1, align 8
  %41 = getelementptr inbounds nuw %struct.ReorderBuffer, ptr %40, i32 0, i32 31
  store ptr null, ptr %41, align 8
  %42 = load ptr, ptr %1, align 8
  %43 = getelementptr inbounds nuw %struct.ReorderBuffer, ptr %42, i32 0, i32 32
  store i64 0, ptr %43, align 8
  %44 = load ptr, ptr %1, align 8
  %45 = getelementptr inbounds nuw %struct.ReorderBuffer, ptr %44, i32 0, i32 33
  store i64 0, ptr %45, align 8
  %46 = call ptr @pairingheap_allocate(ptr noundef @ReorderBufferTXNSizeCompare, ptr noundef null)
  %47 = load ptr, ptr %1, align 8
  %48 = getelementptr inbounds nuw %struct.ReorderBuffer, ptr %47, i32 0, i32 34
  store ptr %46, ptr %48, align 8
  %49 = load ptr, ptr %1, align 8
  %50 = getelementptr inbounds nuw %struct.ReorderBuffer, ptr %49, i32 0, i32 35
  store i64 0, ptr %50, align 8
  %51 = load ptr, ptr %1, align 8
  %52 = getelementptr inbounds nuw %struct.ReorderBuffer, ptr %51, i32 0, i32 36
  store i64 0, ptr %52, align 8
  %53 = load ptr, ptr %1, align 8
  %54 = getelementptr inbounds nuw %struct.ReorderBuffer, ptr %53, i32 0, i32 37
  store i64 0, ptr %54, align 8
  %55 = load ptr, ptr %1, align 8
  %56 = getelementptr inbounds nuw %struct.ReorderBuffer, ptr %55, i32 0, i32 38
  store i64 0, ptr %56, align 8
  %57 = load ptr, ptr %1, align 8
  %58 = getelementptr inbounds nuw %struct.ReorderBuffer, ptr %57, i32 0, i32 39
  store i64 0, ptr %58, align 8
  %59 = load ptr, ptr %1, align 8
  %60 = getelementptr inbounds nuw %struct.ReorderBuffer, ptr %59, i32 0, i32 40
  store i64 0, ptr %60, align 8
  %61 = load ptr, ptr %1, align 8
  %62 = getelementptr inbounds nuw %struct.ReorderBuffer, ptr %61, i32 0, i32 41
  store i64 0, ptr %62, align 8
  %63 = load ptr, ptr %1, align 8
  %64 = getelementptr inbounds nuw %struct.ReorderBuffer, ptr %63, i32 0, i32 42
  store i64 0, ptr %64, align 8
  %65 = load ptr, ptr %1, align 8
  %66 = getelementptr inbounds nuw %struct.ReorderBuffer, ptr %65, i32 0, i32 30
  store i64 0, ptr %66, align 8
  %67 = load ptr, ptr %1, align 8
  %68 = getelementptr inbounds nuw %struct.ReorderBuffer, ptr %67, i32 0, i32 1
  call void @dlist_init(ptr noundef %68)
  %69 = load ptr, ptr %1, align 8
  %70 = getelementptr inbounds nuw %struct.ReorderBuffer, ptr %69, i32 0, i32 2
  call void @dlist_init(ptr noundef %70)
  %71 = load ptr, ptr %1, align 8
  %72 = getelementptr inbounds nuw %struct.ReorderBuffer, ptr %71, i32 0, i32 3
  call void @dclist_init(ptr noundef %72)
  %73 = load ptr, ptr @MyReplicationSlot, align 8
  %74 = getelementptr inbounds nuw %struct.ReplicationSlot, ptr %73, i32 0, i32 7
  %75 = getelementptr inbounds nuw %struct.ReplicationSlotPersistentData, ptr %74, i32 0, i32 0
  %76 = getelementptr inbounds nuw %struct.nameData, ptr %75, i32 0, i32 0
  %77 = getelementptr inbounds [64 x i8], ptr %76, i64 0, i64 0
  call void @ReorderBufferCleanupSerializedTXNs(ptr noundef %77)
  %78 = load ptr, ptr %1, align 8
  call void @llvm.lifetime.end.p0(i64 8, ptr %3) #13
  call void @llvm.lifetime.end.p0(i64 96, ptr %2) #13
  call void @llvm.lifetime.end.p0(i64 8, ptr %1) #13
  ret ptr %78
}