; Function Attrs: nounwind uwtable
define dso_local ptr @ReorderBufferAllocate() local_unnamed_addr #0 {
  %1 = alloca %struct.HASHCTL, align 8
  call void @llvm.lifetime.start.p0(i64 96, ptr nonnull %1) #19
  %2 = load ptr, ptr @CurrentMemoryContext, align 8
  %3 = tail call ptr @AllocSetContextCreateInternal(ptr noundef %2, ptr noundef nonnull @.str, i64 noundef 0, i64 noundef 8192, i64 noundef 8388608) #19
  %4 = tail call ptr @MemoryContextAlloc(ptr noundef %3, i64 noundef 376) #19
  call void @llvm.memset.p0.i64(ptr noundef nonnull align 8 dereferenceable(96) %1, i8 0, i64 96, i1 false)
  %5 = getelementptr inbounds nuw i8, ptr %4, i64 240
  store ptr %3, ptr %5, align 8
  %6 = tail call ptr @SlabContextCreate(ptr noundef %3, ptr noundef nonnull @.str.1, i64 noundef 8192, i64 noundef 80) #19
  %7 = getelementptr inbounds nuw i8, ptr %4, i64 248
  store ptr %6, ptr %7, align 8
  %8 = tail call ptr @SlabContextCreate(ptr noundef %3, ptr noundef nonnull @.str.2, i64 noundef 8192, i64 noundef 320) #19
  %9 = getelementptr inbounds nuw i8, ptr %4, i64 256
  store ptr %8, ptr %9, align 8
  %10 = tail call ptr @GenerationContextCreate(ptr noundef %3, ptr noundef nonnull @.str.3, i64 noundef 8192, i64 noundef 8192, i64 noundef 8192) #19
  %11 = getelementptr inbounds nuw i8, ptr %4, i64 264
  store ptr %10, ptr %11, align 8
  %12 = getelementptr inbounds nuw i8, ptr %1, i64 32
  store i64 4, ptr %12, align 8
  %13 = getelementptr inbounds nuw i8, ptr %1, i64 40
  store i64 16, ptr %13, align 8
  %14 = load ptr, ptr %5, align 8
  %15 = getelementptr inbounds nuw i8, ptr %1, i64 80
  store ptr %14, ptr %15, align 8
  %16 = call ptr @hash_create(ptr noundef nonnull @.str.4, i64 noundef 1000, ptr noundef nonnull %1, i32 noundef 1064) #19
  store ptr %16, ptr %4, align 8
  %17 = getelementptr inbounds nuw i8, ptr %4, i64 64
  store i32 0, ptr %17, align 8
  %18 = getelementptr inbounds nuw i8, ptr %4, i64 72
  store ptr null, ptr %18, align 8
  %19 = getelementptr inbounds nuw i8, ptr %4, i64 280
  call void @llvm.memset.p0.i64(ptr noundef nonnull align 8 dereferenceable(24) %19, i8 0, i64 24, i1 false)
  %20 = call ptr @pairingheap_allocate(ptr noundef nonnull @ReorderBufferTXNSizeCompare, ptr noundef null) #19
  %21 = getelementptr inbounds nuw i8, ptr %4, i64 304
  store ptr %20, ptr %21, align 8
  %22 = getelementptr inbounds nuw i8, ptr %4, i64 312
  %23 = getelementptr inbounds nuw i8, ptr %4, i64 272
  store i64 0, ptr %23, align 8
  %24 = getelementptr inbounds nuw i8, ptr %4, i64 8
  call void @llvm.memset.p0.i64(ptr noundef nonnull align 8 dereferenceable(64) %22, i8 0, i64 64, i1 false)
  store ptr %24, ptr %24, align 8
  %25 = getelementptr inbounds nuw i8, ptr %4, i64 16
  store ptr %24, ptr %25, align 8
  %26 = getelementptr inbounds nuw i8, ptr %4, i64 24
  store ptr %26, ptr %26, align 8
  %27 = getelementptr inbounds nuw i8, ptr %4, i64 32
  store ptr %26, ptr %27, align 8
  %28 = getelementptr inbounds nuw i8, ptr %4, i64 40
  store ptr %28, ptr %28, align 8
  %29 = getelementptr inbounds nuw i8, ptr %4, i64 48
  store ptr %28, ptr %29, align 8
  %30 = getelementptr inbounds nuw i8, ptr %4, i64 56
  store i32 0, ptr %30, align 8
  %31 = load ptr, ptr @MyReplicationSlot, align 8
  %32 = getelementptr inbounds nuw i8, ptr %31, i64 24
  call fastcc void @ReorderBufferCleanupSerializedTXNs(ptr noundef nonnull %32)
  call void @llvm.lifetime.end.p0(i64 96, ptr nonnull %1) #19
  ret ptr %4
}